; Function Attrs: mustprogress uwtable
define internal void @_ZN6duckdbL19ListReverseSortBindERNS_13ClientContextERNS_14ScalarFunctionERNS_6vectorINS_10unique_ptrINS_10ExpressionESt14default_deleteIS6_ELb1EEELb1EEE(ptr dead_on_unwind noalias writable writeonly sret(%"class.duckdb::unique_ptr") align 8 captures(none) %0, ptr noundef nonnull align 8 dereferenceable(648) %1, ptr noundef nonnull align 8 dereferenceable(296) %2, ptr noundef nonnull align 8 dereferenceable(24) %3) #3 personality ptr @__gxx_personality_v0 {
  %5 = alloca %"class.std::__cxx11::basic_string", align 8
  %6 = alloca %"class.std::allocator", align 1
  %7 = getelementptr inbounds nuw i8, ptr %3, i64 8
  %8 = load ptr, ptr %7, align 8, !tbaa !377
  %9 = load ptr, ptr %3, align 8, !tbaa !378
  %10 = ptrtoint ptr %8 to i64
  %11 = ptrtoint ptr %9 to i64
  %12 = sub i64 %10, %11
  %13 = icmp eq i64 %12, 16
  br i1 %13, label %14, label %18

14:                                               ; preds = %4
  %15 = tail call noundef nonnull align 8 dereferenceable(8) ptr @_ZN6duckdb6vectorINS_10unique_ptrINS_10ExpressionESt14default_deleteIS2_ELb1EEELb1EEixEm(ptr noundef nonnull align 8 dereferenceable(24) %3, i64 noundef 1)
  %16 = tail call noundef nonnull align 8 dereferenceable(88) ptr @_ZNK6duckdb10unique_ptrINS_10ExpressionESt14default_deleteIS1_ELb1EEdeEv(ptr noundef nonnull align 8 dereferenceable(8) %15)
  %17 = tail call fastcc noundef zeroext i8 @_ZN6duckdbL8GetOrderINS_15OrderByNullTypeEEET_RNS_13ClientContextERNS_10ExpressionE(ptr noundef nonnull align 8 dereferenceable(648) %1, ptr noundef nonnull align 8 dereferenceable(88) %16)
  br label %18

18:                                               ; preds = %14, %4
  %.018 = phi i8 [ %17, %14 ], [ 1, %4 ]
  %19 = tail call noundef nonnull align 8 dereferenceable(1673) ptr @_ZN6duckdb8DBConfig9GetConfigERNS_13ClientContextE(ptr noundef nonnull align 8 dereferenceable(648) %1)
  %20 = tail call noundef zeroext i8 @_ZNK6duckdb8DBConfig12ResolveOrderENS_9OrderTypeE(ptr noundef nonnull align 8 dereferenceable(1673) %19, i8 noundef zeroext 1)
  switch i8 %20, label %22 [
    i8 2, label %37
    i8 3, label %21
  ]

21:                                               ; preds = %18
  br label %37

22:                                               ; preds = %18
  %23 = tail call ptr @__cxa_allocate_exception(i64 16) #27
  call void @llvm.lifetime.start.p0(i64 32, ptr nonnull %5) #27
  call void @llvm.lifetime.start.p0(i64 1, ptr nonnull %6) #27
  invoke void @_ZNSt7__cxx1112basic_stringIcSt11char_traitsIcESaIcEEC2EPKcRKS3_(ptr noundef nonnull align 8 dereferenceable(32) %5, ptr noundef nonnull @.str.41, ptr noundef nonnull align 1 dereferenceable(1) %6)
          to label %24 unwind label %_ZNSt7__cxx1112basic_stringIcSt11char_traitsIcESaIcEED2Ev.exit.thread

24:                                               ; preds = %22
  invoke void @_ZN6duckdb17InternalExceptionC1ERKNSt7__cxx1112basic_stringIcSt11char_traitsIcESaIcEEE(ptr noundef nonnull align 8 dereferenceable(16) %23, ptr noundef nonnull align 8 dereferenceable(32) %5)
          to label %25 unwind label %27

25:                                               ; preds = %24
  invoke void @__cxa_throw(ptr nonnull %23, ptr nonnull @_ZTIN6duckdb17InternalExceptionE, ptr nonnull @_ZNSt13runtime_errorD2Ev) #29
          to label %39 unwind label %27

_ZNSt7__cxx1112basic_stringIcSt11char_traitsIcESaIcEED2Ev.exit.thread: ; preds = %22
  %26 = landingpad { ptr, i32 }
          cleanup
  call void @llvm.lifetime.end.p0(i64 1, ptr nonnull %6) #27
  call void @llvm.lifetime.end.p0(i64 32, ptr nonnull %5) #27
  br label %35

27:                                               ; preds = %25, %24
  %.0 = phi i1 [ false, %25 ], [ true, %24 ]
  %28 = landingpad { ptr, i32 }
          cleanup
  %29 = load ptr, ptr %5, align 8, !tbaa !139
  %30 = getelementptr inbounds nuw i8, ptr %5, i64 16
  %31 = icmp eq ptr %29, %30
  br i1 %31, label %_ZNKSt7__cxx1112basic_stringIcSt11char_traitsIcESaIcEE11_M_is_localEv.exit.thread.i.i, label %_ZNSt7__cxx1112basic_stringIcSt11char_traitsIcESaIcEED2Ev.exit

_ZNKSt7__cxx1112basic_stringIcSt11char_traitsIcESaIcEE11_M_is_localEv.exit.thread.i.i: ; preds = %27
  %32 = getelementptr inbounds nuw i8, ptr %5, i64 8
  %33 = load i64, ptr %32, align 8, !tbaa !140
  %34 = icmp ult i64 %33, 16
  call void @llvm.assume(i1 %34)
  call void @llvm.lifetime.end.p0(i64 1, ptr nonnull %6) #27
  call void @llvm.lifetime.end.p0(i64 32, ptr nonnull %5) #27
  br i1 %.0, label %35, label %36

_ZNSt7__cxx1112basic_stringIcSt11char_traitsIcESaIcEED2Ev.exit: ; preds = %27
  call void @_ZdlPv(ptr noundef %29) #31
  call void @llvm.lifetime.end.p0(i64 1, ptr nonnull %6) #27
  call void @llvm.lifetime.end.p0(i64 32, ptr nonnull %5) #27
  br i1 %.0, label %35, label %36

35:                                               ; preds = %_ZNKSt7__cxx1112basic_stringIcSt11char_traitsIcESaIcEE11_M_is_localEv.exit.thread.i.i, %_ZNSt7__cxx1112basic_stringIcSt11char_traitsIcESaIcEED2Ev.exit.thread, %_ZNSt7__cxx1112basic_stringIcSt11char_traitsIcESaIcEED2Ev.exit
  %.pn22 = phi { ptr, i32 } [ %26, %_ZNSt7__cxx1112basic_stringIcSt11char_traitsIcESaIcEED2Ev.exit.thread ], [ %28, %_ZNSt7__cxx1112basic_stringIcSt11char_traitsIcESaIcEED2Ev.exit ], [ %28, %_ZNKSt7__cxx1112basic_stringIcSt11char_traitsIcESaIcEE11_M_is_localEv.exit.thread.i.i ]
  call void @__cxa_free_exception(ptr %23) #27
  br label %36

36:                                               ; preds = %_ZNKSt7__cxx1112basic_stringIcSt11char_traitsIcESaIcEE11_M_is_localEv.exit.thread.i.i, %35, %_ZNSt7__cxx1112basic_stringIcSt11char_traitsIcESaIcEED2Ev.exit
  %.pn21 = phi { ptr, i32 } [ %.pn22, %35 ], [ %28, %_ZNSt7__cxx1112basic_stringIcSt11char_traitsIcESaIcEED2Ev.exit ], [ %28, %_ZNKSt7__cxx1112basic_stringIcSt11char_traitsIcESaIcEE11_M_is_localEv.exit.thread.i.i ]
  resume { ptr, i32 } %.pn21

37:                                               ; preds = %18, %21
  %storemerge = phi i8 [ 2, %21 ], [ 3, %18 ]
  %38 = tail call noundef zeroext i8 @_ZNK6duckdb8DBConfig16ResolveNullOrderENS_9OrderTypeENS_15OrderByNullTypeE(ptr noundef nonnull align 8 dereferenceable(1673) %19, i8 noundef zeroext %storemerge, i8 noundef zeroext %.018)
  tail call fastcc void @_ZN6duckdbL12ListSortBindERNS_13ClientContextERNS_14ScalarFunctionERNS_6vectorINS_10unique_ptrINS_10ExpressionESt14default_deleteIS6_ELb1EEELb1EEERNS_9OrderTypeERNS_15OrderByNullTypeE(ptr dead_on_unwind noalias writable align 8 %0, ptr noundef nonnull align 8 dereferenceable(648) %1, ptr noundef nonnull align 8 dereferenceable(296) %2, ptr noundef nonnull align 8 dereferenceable(24) %3, i8 %storemerge, i8 %38)
  ret void

39:                                               ; preds = %25
  unreachable
}